; ModuleID = 'source-C-CXX/11/1224.cpp'
source_filename = "source-C-CXX/11/1224.cpp"
target datalayout = "e-m:e-p270:32:32-p271:32:32-p272:64:64-i64:64-f80:128-n8:16:32:64-S128"
target triple = "x86_64-pc-linux-gnu"

%"class.std::ios_base::Init" = type { i8 }
%"class.std::basic_istream" = type { i32 (...)**, i64, %"class.std::basic_ios" }
%"class.std::basic_ios" = type { %"class.std::ios_base", %"class.std::basic_ostream"*, i8, i8, %"class.std::basic_streambuf"*, %"class.std::ctype"*, %"class.std::num_put"*, %"class.std::num_get"* }
%"class.std::ios_base" = type { i32 (...)**, i64, i64, i32, i32, i32, %"struct.std::ios_base::_Callback_list"*, %"struct.std::ios_base::_Words", [8 x %"struct.std::ios_base::_Words"], i32, %"struct.std::ios_base::_Words"*, %"class.std::locale" }
%"struct.std::ios_base::_Callback_list" = type { %"struct.std::ios_base::_Callback_list"*, void (i32, %"class.std::ios_base"*, i32)*, i32, i32 }
%"struct.std::ios_base::_Words" = type { i8*, i64 }
%"class.std::locale" = type { %"class.std::locale::_Impl"* }
%"class.std::locale::_Impl" = type { i32, %"class.std::locale::facet"**, i64, %"class.std::locale::facet"**, i8** }
%"class.std::locale::facet" = type <{ i32 (...)**, i32, [4 x i8] }>
%"class.std::basic_ostream" = type { i32 (...)**, %"class.std::basic_ios" }
%"class.std::basic_streambuf" = type { i32 (...)**, i8*, i8*, i8*, i8*, i8*, i8*, %"class.std::locale" }
%"class.std::ctype" = type <{ %"class.std::locale::facet.base", [4 x i8], %struct.__locale_struct*, i8, [7 x i8], i32*, i32*, i16*, i8, [256 x i8], [256 x i8], i8, [6 x i8] }>
%"class.std::locale::facet.base" = type <{ i32 (...)**, i32 }>
%struct.__locale_struct = type { [13 x %struct.__locale_data*], i16*, i32*, i32*, [13 x i8*] }
%struct.__locale_data = type opaque
%"class.std::num_put" = type { %"class.std::locale::facet.base", [4 x i8] }
%"class.std::num_get" = type { %"class.std::locale::facet.base", [4 x i8] }

@_ZStL8__ioinit = internal global %"class.std::ios_base::Init" zeroinitializer, align 1
@__dso_handle = external hidden global i8
@_ZSt3cin = external global %"class.std::basic_istream", align 8
@_ZSt4cout = external global %"class.std::basic_ostream", align 8
@llvm.global_ctors = appending global [1 x { i32, void ()*, i8* }] [{ i32, void ()*, i8* } { i32 65535, void ()* @_GLOBAL__sub_I_1224.cpp, i8* null }]

declare void @_ZNSt8ios_base4InitC1Ev(%"class.std::ios_base::Init"* nonnull align 1 dereferenceable(1)) unnamed_addr #0

; Function Attrs: nounwind
declare void @_ZNSt8ios_base4InitD1Ev(%"class.std::ios_base::Init"* nonnull align 1 dereferenceable(1)) unnamed_addr #1

; Function Attrs: nofree nounwind
declare i32 @__cxa_atexit(void (i8*)*, i8*, i8*) local_unnamed_addr #2

; Function Attrs: mustprogress norecurse sspstrong uwtable
define dso_local i32 @main() local_unnamed_addr #3 {
  %1 = alloca i32, align 4
  %2 = alloca [15 x i32], align 16
  %3 = bitcast [15 x i32]* %2 to i8*
  %4 = bitcast i32* %1 to i8*
  call void @llvm.lifetime.start.p0i8(i64 4, i8* nonnull %4) #9
  call void @llvm.lifetime.start.p0i8(i64 60, i8* nonnull %3) #9
  %5 = bitcast [15 x i32]* %2 to <16 x i32>*
  br label %6

6:                                                ; preds = %20, %0
  %7 = phi i64 [ 0, %0 ], [ %21, %20 ]
  %8 = call nonnull align 8 dereferenceable(16) %"class.std::basic_istream"* @_ZNSirsERi(%"class.std::basic_istream"* nonnull align 8 dereferenceable(16) @_ZSt3cin, i32* nonnull align 4 dereferenceable(4) %1)
  %9 = load i32, i32* %1, align 4, !tbaa !5
  %10 = add i32 %9, 1
  %11 = icmp ugt i32 %10, 1
  br i1 %11, label %12, label %14

12:                                               ; preds = %6
  %13 = getelementptr inbounds [15 x i32], [15 x i32]* %2, i64 0, i64 %7
  store i32 %9, i32* %13, align 4, !tbaa !5
  br label %18

14:                                               ; preds = %6
  switch i32 %9, label %18 [
    i32 0, label %15
    i32 -1, label %74
  ]

15:                                               ; preds = %14
  %16 = load <16 x i32>, <16 x i32>* %5, align 16, !tbaa !5
  %17 = extractelement <16 x i32> %16, i32 0
  br label %35

18:                                               ; preds = %14, %12
  %19 = add nuw i64 %7, 1
  br label %20

20:                                               ; preds = %18, %70
  %21 = phi i64 [ %19, %18 ], [ 0, %70 ]
  br label %6, !llvm.loop !9

22:                                               ; preds = %35
  call void @llvm.memset.p0i8.i64(i8* noundef nonnull align 16 dereferenceable(64) %3, i8 0, i64 64, i1 false)
  %23 = call nonnull align 8 dereferenceable(8) %"class.std::basic_ostream"* @_ZNSolsEi(%"class.std::basic_ostream"* nonnull align 8 dereferenceable(8) @_ZSt4cout, i32 %50)
  %24 = bitcast %"class.std::basic_ostream"* %23 to i8**
  %25 = load i8*, i8** %24, align 8, !tbaa !11
  %26 = getelementptr i8, i8* %25, i64 -24
  %27 = bitcast i8* %26 to i64*
  %28 = load i64, i64* %27, align 8
  %29 = bitcast %"class.std::basic_ostream"* %23 to i8*
  %30 = add nsw i64 %28, 240
  %31 = getelementptr inbounds i8, i8* %29, i64 %30
  %32 = bitcast i8* %31 to %"class.std::ctype"**
  %33 = load %"class.std::ctype"*, %"class.std::ctype"** %32, align 8, !tbaa !13
  %34 = icmp eq %"class.std::ctype"* %33, null
  br i1 %34, label %56, label %57

35:                                               ; preds = %53, %15
  %36 = phi i32 [ %17, %15 ], [ %55, %53 ]
  %37 = phi i64 [ 0, %15 ], [ %51, %53 ]
  %38 = phi i32 [ 0, %15 ], [ %50, %53 ]
  %39 = shl nsw i32 %36, 1
  %40 = icmp ne i32 %36, 0
  %41 = insertelement <16 x i32> poison, i32 %39, i32 0
  %42 = shufflevector <16 x i32> %41, <16 x i32> poison, <16 x i32> zeroinitializer
  %43 = icmp eq <16 x i32> %42, %16
  %44 = insertelement <16 x i1> poison, i1 %40, i32 0
  %45 = shufflevector <16 x i1> %44, <16 x i1> poison, <16 x i32> zeroinitializer
  %46 = and <16 x i1> %45, %43
  %47 = bitcast <16 x i1> %46 to i16
  %48 = call i16 @llvm.ctpop.i16(i16 %47), !range !17
  %49 = zext i16 %48 to i32
  %50 = add nuw nsw i32 %38, %49
  %51 = add nuw nsw i64 %37, 1
  %52 = icmp eq i64 %51, 16
  br i1 %52, label %22, label %53, !llvm.loop !18

53:                                               ; preds = %35
  %54 = getelementptr inbounds [15 x i32], [15 x i32]* %2, i64 0, i64 %51
  %55 = load i32, i32* %54, align 4, !tbaa !5
  br label %35

56:                                               ; preds = %22
  call void @_ZSt16__throw_bad_castv() #10
  unreachable

57:                                               ; preds = %22
  %58 = getelementptr inbounds %"class.std::ctype", %"class.std::ctype"* %33, i64 0, i32 8
  %59 = load i8, i8* %58, align 8, !tbaa !19
  %60 = icmp eq i8 %59, 0
  br i1 %60, label %64, label %61

61:                                               ; preds = %57
  %62 = getelementptr inbounds %"class.std::ctype", %"class.std::ctype"* %33, i64 0, i32 9, i64 10
  %63 = load i8, i8* %62, align 1, !tbaa !21
  br label %70

64:                                               ; preds = %57
  call void @_ZNKSt5ctypeIcE13_M_widen_initEv(%"class.std::ctype"* nonnull align 8 dereferenceable(570) %33)
  %65 = bitcast %"class.std::ctype"* %33 to i8 (%"class.std::ctype"*, i8)***
  %66 = load i8 (%"class.std::ctype"*, i8)**, i8 (%"class.std::ctype"*, i8)*** %65, align 8, !tbaa !11
  %67 = getelementptr inbounds i8 (%"class.std::ctype"*, i8)*, i8 (%"class.std::ctype"*, i8)** %66, i64 6
  %68 = load i8 (%"class.std::ctype"*, i8)*, i8 (%"class.std::ctype"*, i8)** %67, align 8
  %69 = call signext i8 %68(%"class.std::ctype"* nonnull align 8 dereferenceable(570) %33, i8 signext 10)
  br label %70

70:                                               ; preds = %61, %64
  %71 = phi i8 [ %63, %61 ], [ %69, %64 ]
  %72 = call nonnull align 8 dereferenceable(8) %"class.std::basic_ostream"* @_ZNSo3putEc(%"class.std::basic_ostream"* nonnull align 8 dereferenceable(8) %23, i8 signext %71)
  %73 = call nonnull align 8 dereferenceable(8) %"class.std::basic_ostream"* @_ZNSo5flushEv(%"class.std::basic_ostream"* nonnull align 8 dereferenceable(8) %72)
  br label %20

74:                                               ; preds = %14
  call void @llvm.lifetime.end.p0i8(i64 60, i8* nonnull %3) #9
  call void @llvm.lifetime.end.p0i8(i64 4, i8* nonnull %4) #9
  ret i32 0
}

; Function Attrs: argmemonly mustprogress nofree nosync nounwind willreturn
declare void @llvm.lifetime.start.p0i8(i64 immarg, i8* nocapture) #4

declare nonnull align 8 dereferenceable(16) %"class.std::basic_istream"* @_ZNSirsERi(%"class.std::basic_istream"* nonnull align 8 dereferenceable(16), i32* nonnull align 4 dereferenceable(4)) local_unnamed_addr #0

declare nonnull align 8 dereferenceable(8) %"class.std::basic_ostream"* @_ZNSolsEi(%"class.std::basic_ostream"* nonnull align 8 dereferenceable(8), i32) local_unnamed_addr #0

; Function Attrs: argmemonly mustprogress nofree nosync nounwind willreturn
declare void @llvm.lifetime.end.p0i8(i64 immarg, i8* nocapture) #4

declare nonnull align 8 dereferenceable(8) %"class.std::basic_ostream"* @_ZNSo3putEc(%"class.std::basic_ostream"* nonnull align 8 dereferenceable(8), i8 signext) local_unnamed_addr #0

declare nonnull align 8 dereferenceable(8) %"class.std::basic_ostream"* @_ZNSo5flushEv(%"class.std::basic_ostream"* nonnull align 8 dereferenceable(8)) local_unnamed_addr #0

; Function Attrs: noreturn
declare void @_ZSt16__throw_bad_castv() local_unnamed_addr #5

declare void @_ZNKSt5ctypeIcE13_M_widen_initEv(%"class.std::ctype"* nonnull align 8 dereferenceable(570)) local_unnamed_addr #0

; Function Attrs: sspstrong uwtable
define internal void @_GLOBAL__sub_I_1224.cpp() #6 section ".text.startup" {
  tail call void @_ZNSt8ios_base4InitC1Ev(%"class.std::ios_base::Init"* nonnull align 1 dereferenceable(1) @_ZStL8__ioinit)
  %1 = tail call i32 @__cxa_atexit(void (i8*)* bitcast (void (%"class.std::ios_base::Init"*)* @_ZNSt8ios_base4InitD1Ev to void (i8*)*), i8* getelementptr inbounds (%"class.std::ios_base::Init", %"class.std::ios_base::Init"* @_ZStL8__ioinit, i64 0, i32 0), i8* nonnull @__dso_handle) #9
  ret void
}

; Function Attrs: argmemonly nofree nounwind willreturn writeonly
declare void @llvm.memset.p0i8.i64(i8* nocapture writeonly, i8, i64, i1 immarg) #7

; Function Attrs: nofree nosync nounwind readnone speculatable willreturn
declare i16 @llvm.ctpop.i16(i16) #8


!llvm.module.flags = !{!0, !1, !2, !3}
!llvm.ident = !{!4}

!0 = !{i32 1, !"wchar_size", i32 4}
!1 = !{i32 7, !"PIC Level", i32 2}
!2 = !{i32 7, !"PIE Level", i32 2}
!3 = !{i32 7, !"uwtable", i32 1}
!4 = !{!"clang version 13.0.0"}
!5 = !{!6, !6, i64 0}
!6 = !{!"int", !7, i64 0}
!7 = !{!"omnipotent char", !8, i64 0}
!8 = !{!"Simple C++ TBAA"}
!9 = distinct !{!9, !10}
!10 = !{!"llvm.loop.mustprogress"}
!11 = !{!12, !12, i64 0}
!12 = !{!"vtable pointer", !8, i64 0}
!13 = !{!14, !15, i64 240}
!14 = !{!"_ZTSSt9basic_iosIcSt11char_traitsIcEE", !15, i64 216, !7, i64 224, !16, i64 225, !15, i64 232, !15, i64 240, !15, i64 248, !15, i64 256}
!15 = !{!"any pointer", !7, i64 0}
!16 = !{!"bool", !7, i64 0}
!17 = !{i16 0, i16 17}
!18 = distinct !{!18, !10}
!19 = !{!20, !7, i64 56}
!20 = !{!"_ZTSSt5ctypeIcE", !15, i64 16, !16, i64 24, !15, i64 32, !15, i64 40, !15, i64 48, !7, i64 56, !7, i64 57, !7, i64 313, !7, i64 569}
!21 = !{!7, !7, i64 0}
